target datalayout = "e-m:e-p270:32:32-p271:32:32-p272:64:64-i64:64-i128:128-f80:128-n8:16:32:64-S128"
target triple = "x86_64-pc-linux-gnu"

; Function Attrs: mustprogress nounwind uwtable
define noundef signext i8 @_Z11HueToLetteri(i32 noundef %0) #7 {
  %2 = alloca i32, align 4
  %3 = alloca i8, align 1
  store i32 %0, ptr %2, align 4, !tbaa !57
  call void @llvm.lifetime.start.p0(i64 1, ptr %3) #3
  store i8 82, ptr %3, align 1, !tbaa !86
  %4 = load i32, ptr %2, align 4, !tbaa !57
  %5 = icmp slt i32 %4, 11
  br i1 %5, label %9, label %6

6:                                                ; preds = %1
  %7 = load i32, ptr %2, align 4, !tbaa !57
  %8 = icmp sge i32 %7, 244
  br i1 %8, label %9, label %10

9:                                                ; preds = %6, %1
  store i8 82, ptr %3, align 1, !tbaa !86
  br label %98

10:                                               ; preds = %6
  %11 = load i32, ptr %2, align 4, !tbaa !57
  %12 = icmp sge i32 %11, 11
  br i1 %12, label %13, label %17

13:                                               ; preds = %10
  %14 = load i32, ptr %2, align 4, !tbaa !57
  %15 = icmp slt i32 %14, 32
  br i1 %15, label %16, label %17

16:                                               ; preds = %13
  store i8 79, ptr %3, align 1, !tbaa !86
  br label %97

17:                                               ; preds = %13, %10
  %18 = load i32, ptr %2, align 4, !tbaa !57
  %19 = icmp sge i32 %18, 32
  br i1 %19, label %20, label %24

20:                                               ; preds = %17
  %21 = load i32, ptr %2, align 4, !tbaa !57
  %22 = icmp slt i32 %21, 53
  br i1 %22, label %23, label %24

23:                                               ; preds = %20
  store i8 89, ptr %3, align 1, !tbaa !86
  br label %96

24:                                               ; preds = %20, %17
  %25 = load i32, ptr %2, align 4, !tbaa !57
  %26 = icmp sge i32 %25, 53
  br i1 %26, label %27, label %31

27:                                               ; preds = %24
  %28 = load i32, ptr %2, align 4, !tbaa !57
  %29 = icmp slt i32 %28, 74
  br i1 %29, label %30, label %31

30:                                               ; preds = %27
  store i8 76, ptr %3, align 1, !tbaa !86
  br label %95

31:                                               ; preds = %27, %24
  %32 = load i32, ptr %2, align 4, !tbaa !57
  %33 = icmp sge i32 %32, 74
  br i1 %33, label %34, label %38

34:                                               ; preds = %31
  %35 = load i32, ptr %2, align 4, !tbaa !57
  %36 = icmp slt i32 %35, 96
  br i1 %36, label %37, label %38

37:                                               ; preds = %34
  store i8 71, ptr %3, align 1, !tbaa !86
  br label %94

38:                                               ; preds = %34, %31
  %39 = load i32, ptr %2, align 4, !tbaa !57
  %40 = icmp sge i32 %39, 96
  br i1 %40, label %41, label %45

41:                                               ; preds = %38
  %42 = load i32, ptr %2, align 4, !tbaa !57
  %43 = icmp slt i32 %42, 117
  br i1 %43, label %44, label %45

44:                                               ; preds = %41
  store i8 84, ptr %3, align 1, !tbaa !86
  br label %93

45:                                               ; preds = %41, %38
  %46 = load i32, ptr %2, align 4, !tbaa !57
  %47 = icmp sge i32 %46, 117
  br i1 %47, label %48, label %52

48:                                               ; preds = %45
  %49 = load i32, ptr %2, align 4, !tbaa !57
  %50 = icmp slt i32 %49, 138
  br i1 %50, label %51, label %52

51:                                               ; preds = %48
  store i8 67, ptr %3, align 1, !tbaa !86
  br label %92

52:                                               ; preds = %48, %45
  %53 = load i32, ptr %2, align 4, !tbaa !57
  %54 = icmp sge i32 %53, 138
  br i1 %54, label %55, label %59

55:                                               ; preds = %52
  %56 = load i32, ptr %2, align 4, !tbaa !57
  %57 = icmp slt i32 %56, 159
  br i1 %57, label %58, label %59

58:                                               ; preds = %55
  store i8 65, ptr %3, align 1, !tbaa !86
  br label %91

59:                                               ; preds = %55, %52
  %60 = load i32, ptr %2, align 4, !tbaa !57
  %61 = icmp sge i32 %60, 159
  br i1 %61, label %62, label %66

62:                                               ; preds = %59
  %63 = load i32, ptr %2, align 4, !tbaa !57
  %64 = icmp slt i32 %63, 181
  br i1 %64, label %65, label %66

65:                                               ; preds = %62
  store i8 66, ptr %3, align 1, !tbaa !86
  br label %90

66:                                               ; preds = %62, %59
  %67 = load i32, ptr %2, align 4, !tbaa !57
  %68 = icmp sge i32 %67, 181
  br i1 %68, label %69, label %73

69:                                               ; preds = %66
  %70 = load i32, ptr %2, align 4, !tbaa !57
  %71 = icmp slt i32 %70, 202
  br i1 %71, label %72, label %73

72:                                               ; preds = %69
  store i8 86, ptr %3, align 1, !tbaa !86
  br label %89

73:                                               ; preds = %69, %66
  %74 = load i32, ptr %2, align 4, !tbaa !57
  %75 = icmp sge i32 %74, 202
  br i1 %75, label %76, label %80

76:                                               ; preds = %73
  %77 = load i32, ptr %2, align 4, !tbaa !57
  %78 = icmp slt i32 %77, 223
  br i1 %78, label %79, label %80

79:                                               ; preds = %76
  store i8 77, ptr %3, align 1, !tbaa !86
  br label %88

80:                                               ; preds = %76, %73
  %81 = load i32, ptr %2, align 4, !tbaa !57
  %82 = icmp sge i32 %81, 223
  br i1 %82, label %83, label %87

83:                                               ; preds = %80
  %84 = load i32, ptr %2, align 4, !tbaa !57
  %85 = icmp slt i32 %84, 244
  br i1 %85, label %86, label %87

86:                                               ; preds = %83
  store i8 70, ptr %3, align 1, !tbaa !86
  br label %87

87:                                               ; preds = %86, %83, %80
  br label %88

88:                                               ; preds = %87, %79
  br label %89

89:                                               ; preds = %88, %72
  br label %90

90:                                               ; preds = %89, %65
  br label %91

91:                                               ; preds = %90, %58
  br label %92

92:                                               ; preds = %91, %51
  br label %93

93:                                               ; preds = %92, %44
  br label %94

94:                                               ; preds = %93, %37
  br label %95

95:                                               ; preds = %94, %30
  br label %96

96:                                               ; preds = %95, %23
  br label %97

97:                                               ; preds = %96, %16
  br label %98

98:                                               ; preds = %97, %9
  %99 = load i8, ptr %3, align 1, !tbaa !86
  call void @llvm.lifetime.end.p0(i64 1, ptr %3) #3
  ret i8 %99
}