; Function Attrs: mustprogress nofree norecurse nosync nounwind willreturn memory(none) uwtable
define noundef signext range(i8 65, 90) i8 @_Z11HueToLetteri(i32 noundef %0) local_unnamed_addr #8 {
  %2 = add i32 %0, -244
  %or.cond = icmp ult i32 %2, -233
  br i1 %or.cond, label %23, label %3

3:                                                ; preds = %1
  %4 = icmp samesign ult i32 %0, 32
  br i1 %4, label %23, label %5

5:                                                ; preds = %3
  %6 = icmp samesign ult i32 %0, 53
  br i1 %6, label %23, label %7

7:                                                ; preds = %5
  %8 = icmp samesign ult i32 %0, 74
  br i1 %8, label %23, label %9

9:                                                ; preds = %7
  %10 = icmp samesign ult i32 %0, 96
  br i1 %10, label %23, label %11

11:                                               ; preds = %9
  %12 = icmp samesign ult i32 %0, 117
  br i1 %12, label %23, label %13

13:                                               ; preds = %11
  %14 = icmp samesign ult i32 %0, 138
  br i1 %14, label %23, label %15

15:                                               ; preds = %13
  %16 = icmp samesign ult i32 %0, 159
  br i1 %16, label %23, label %17

17:                                               ; preds = %15
  %18 = icmp samesign ult i32 %0, 181
  br i1 %18, label %23, label %19

19:                                               ; preds = %17
  %20 = icmp samesign ult i32 %0, 202
  br i1 %20, label %23, label %21

21:                                               ; preds = %19
  %22 = icmp samesign ult i32 %0, 223
  %spec.select = select i1 %22, i8 77, i8 70
  br label %23

23:                                               ; preds = %21, %19, %17, %15, %13, %11, %9, %7, %5, %3, %1
  %.0 = phi i8 [ 82, %1 ], [ 79, %3 ], [ 89, %5 ], [ 76, %7 ], [ 71, %9 ], [ 84, %11 ], [ 67, %13 ], [ 65, %15 ], [ 66, %17 ], [ 86, %19 ], [ %spec.select, %21 ]
  ret i8 %.0
}